; Function Attrs: nounwind uwtable
define internal noundef i32 @lj_cf_buffer_encode(ptr noundef %0) #0 {
  %2 = tail call ptr @lj_lib_checkany(ptr noundef %0, i32 noundef 1) #6
  %3 = getelementptr inbounds nuw i8, ptr %0, i64 40
  %4 = load ptr, ptr %3, align 8, !tbaa !14
  %5 = getelementptr inbounds nuw i8, ptr %4, i64 8
  store ptr %5, ptr %3, align 8, !tbaa !14
  %6 = tail call ptr @lj_serialize_encode(ptr noundef %0, ptr noundef %2) #6
  %7 = ptrtoint ptr %6 to i64
  %8 = or i64 %7, -703687441776640
  store i64 %8, ptr %4, align 8, !tbaa !15
  %9 = getelementptr inbounds nuw i8, ptr %0, i64 16
  %10 = load i64, ptr %9, align 8, !tbaa !19
  %11 = inttoptr i64 %10 to ptr
  %12 = getelementptr inbounds nuw i8, ptr %11, i64 16
  %13 = load i64, ptr %12, align 8, !tbaa !22
  %14 = getelementptr inbounds nuw i8, ptr %11, i64 24
  %15 = load i64, ptr %14, align 8, !tbaa !51
  %.not = icmp ult i64 %13, %15
  br i1 %.not, label %18, label %16, !prof !52

16:                                               ; preds = %1
  %17 = tail call i32 @lj_gc_step(ptr noundef nonnull %0) #6
  br label %18

18:                                               ; preds = %16, %1
  ret i32 1
}